target datalayout = "e-m:e-p270:32:32-p271:32:32-p272:64:64-i64:64-i128:128-f80:128-n8:16:32:64-S128"
target triple = "x86_64-pc-linux-gnu"

%"class.btInverseDynamicsBullet3::mat33" = type { %class.btMatrix3x3 }
%class.btMatrix3x3 = type { [3 x %class.btVector3] }
%class.btVector3 = type { [4 x float] }

; Function Attrs: inlinehint mustprogress nounwind uwtable
define linkonce_odr dso_local void @_ZN9btVector3C2Ev(ptr noundef nonnull align 4 dereferenceable(16) %0) unnamed_addr #4 comdat align 2 {
  %2 = alloca ptr, align 8
  store ptr %0, ptr %2, align 8, !tbaa !52
  ret void
}

; Function Attrs: inlinehint mustprogress nounwind uwtable
define linkonce_odr dso_local noundef ptr @_ZN9btVector3cvPfEv(ptr noundef nonnull align 4 dereferenceable(16) %0) #4 comdat align 2 {
  %2 = alloca ptr, align 8
  store ptr %0, ptr %2, align 8, !tbaa !52
  %3 = load ptr, ptr %2, align 8
  %4 = getelementptr inbounds nuw %class.btVector3, ptr %3, i32 0, i32 0
  %5 = getelementptr inbounds [4 x float], ptr %4, i64 0, i64 0
  ret ptr %5
}

; Function Attrs: inlinehint mustprogress nounwind uwtable
define linkonce_odr dso_local noundef nonnull align 4 dereferenceable(16) ptr @_ZN11btMatrix3x3ixEi(ptr noundef nonnull align 4 dereferenceable(48) %0, i32 noundef %1) #4 comdat align 2 {
  %3 = alloca ptr, align 8
  %4 = alloca i32, align 4
  store ptr %0, ptr %3, align 8, !tbaa !57
  store i32 %1, ptr %4, align 4, !tbaa !9
  %5 = load ptr, ptr %3, align 8
  %6 = getelementptr inbounds nuw %class.btMatrix3x3, ptr %5, i32 0, i32 0
  %7 = load i32, ptr %4, align 4, !tbaa !9
  %8 = sext i32 %7 to i64
  %9 = getelementptr inbounds [3 x %class.btVector3], ptr %6, i64 0, i64 %8
  ret ptr %9
}

; Function Attrs: mustprogress uwtable
define linkonce_odr dso_local void @_ZN11btMatrix3x3C2Ev(ptr noundef nonnull align 4 dereferenceable(48) %0) unnamed_addr #2 comdat align 2 {
  %2 = alloca ptr, align 8
  store ptr %0, ptr %2, align 8, !tbaa !57
  %3 = load ptr, ptr %2, align 8
  %4 = getelementptr inbounds nuw %class.btMatrix3x3, ptr %3, i32 0, i32 0
  %5 = getelementptr inbounds [3 x %class.btVector3], ptr %4, i32 0, i32 0
  %6 = getelementptr inbounds %class.btVector3, ptr %5, i64 3
  br label %7

7:                                                ; preds = %7, %1
  %8 = phi ptr [ %5, %1 ], [ %9, %7 ]
  call void @_ZN9btVector3C2Ev(ptr noundef nonnull align 4 dereferenceable(16) %8)
  %9 = getelementptr inbounds %class.btVector3, ptr %8, i64 1
  %10 = icmp eq ptr %9, %6
  br i1 %10, label %11, label %7

11:                                               ; preds = %7
  ret void
}

; Function Attrs: mustprogress uwtable
define linkonce_odr dso_local noundef nonnull align 4 dereferenceable(4) ptr @_ZN24btInverseDynamicsBullet35mat33clEii(ptr noundef nonnull align 4 dereferenceable(48) %0, i32 noundef %1, i32 noundef %2) #2 comdat align 2 {
  %4 = alloca ptr, align 8
  %5 = alloca i32, align 4
  %6 = alloca i32, align 4
  store ptr %0, ptr %4, align 8, !tbaa !22
  store i32 %1, ptr %5, align 4, !tbaa !9
  store i32 %2, ptr %6, align 4, !tbaa !9
  %7 = load ptr, ptr %4, align 8
  %8 = load i32, ptr %5, align 4, !tbaa !9
  %9 = call noundef nonnull align 4 dereferenceable(16) ptr @_ZN11btMatrix3x3ixEi(ptr noundef nonnull align 4 dereferenceable(48) %7, i32 noundef %8)
  %10 = call noundef ptr @_ZN9btVector3cvPfEv(ptr noundef nonnull align 4 dereferenceable(16) %9)
  %11 = load i32, ptr %6, align 4, !tbaa !9
  %12 = sext i32 %11 to i64
  %13 = getelementptr inbounds float, ptr %10, i64 %12
  ret ptr %13
}

; Function Attrs: inlinehint mustprogress nounwind uwtable
define linkonce_odr dso_local noundef float @_Z5btSinf(float noundef %0) #4 comdat {
  %2 = alloca float, align 4
  store float %0, ptr %2, align 4, !tbaa !14
  %3 = load float, ptr %2, align 4, !tbaa !14
  %4 = call float @sinf(float noundef %3) #10, !tbaa !9
  ret float %4
}

; Function Attrs: inlinehint mustprogress nounwind uwtable
define linkonce_odr dso_local noundef float @_Z5btCosf(float noundef %0) #4 comdat {
  %2 = alloca float, align 4
  store float %0, ptr %2, align 4, !tbaa !14
  %3 = load float, ptr %2, align 4, !tbaa !14
  %4 = call float @cosf(float noundef %3) #10, !tbaa !9
  ret float %4
}

; Function Attrs: mustprogress uwtable
define linkonce_odr dso_local void @_ZN24btInverseDynamicsBullet35mat33C2Ev(ptr noundef nonnull align 4 dereferenceable(48) %0) unnamed_addr #2 comdat align 2 {
  %2 = alloca ptr, align 8
  store ptr %0, ptr %2, align 8, !tbaa !22
  %3 = load ptr, ptr %2, align 8
  call void @_ZN11btMatrix3x3C2Ev(ptr noundef nonnull align 4 dereferenceable(48) %3)
  ret void
}

; Function Attrs: mustprogress uwtable
define dso_local void @_ZN24btInverseDynamicsBullet310transformYERKf(ptr dead_on_unwind noalias writable sret(%"class.btInverseDynamicsBullet3::mat33") align 4 %0, ptr noundef nonnull align 4 dereferenceable(4) %1) #2 {
  %3 = alloca ptr, align 8
  %4 = alloca ptr, align 8
  %5 = alloca float, align 4
  %6 = alloca float, align 4
  store ptr %0, ptr %3, align 8
  store ptr %1, ptr %4, align 8, !tbaa !41
  call void @_ZN24btInverseDynamicsBullet35mat33C2Ev(ptr noundef nonnull align 4 dereferenceable(48) %0)
  call void @llvm.lifetime.start.p0(i64 4, ptr %5) #10
  %7 = load ptr, ptr %4, align 8, !tbaa !41
  %8 = load float, ptr %7, align 4, !tbaa !14
  %9 = call noundef float @_Z5btCosf(float noundef %8)
  store float %9, ptr %5, align 4, !tbaa !14
  call void @llvm.lifetime.start.p0(i64 4, ptr %6) #10
  %10 = load ptr, ptr %4, align 8, !tbaa !41
  %11 = load float, ptr %10, align 4, !tbaa !14
  %12 = call noundef float @_Z5btSinf(float noundef %11)
  store float %12, ptr %6, align 4, !tbaa !14
  %13 = load float, ptr %5, align 4, !tbaa !14
  %14 = call noundef nonnull align 4 dereferenceable(4) ptr @_ZN24btInverseDynamicsBullet35mat33clEii(ptr noundef nonnull align 4 dereferenceable(48) %0, i32 noundef 0, i32 noundef 0)
  store float %13, ptr %14, align 4, !tbaa !14
  %15 = call noundef nonnull align 4 dereferenceable(4) ptr @_ZN24btInverseDynamicsBullet35mat33clEii(ptr noundef nonnull align 4 dereferenceable(48) %0, i32 noundef 0, i32 noundef 1)
  store float 0.000000e+00, ptr %15, align 4, !tbaa !14
  %16 = load float, ptr %6, align 4, !tbaa !14
  %17 = fneg float %16
  %18 = call noundef nonnull align 4 dereferenceable(4) ptr @_ZN24btInverseDynamicsBullet35mat33clEii(ptr noundef nonnull align 4 dereferenceable(48) %0, i32 noundef 0, i32 noundef 2)
  store float %17, ptr %18, align 4, !tbaa !14
  %19 = call noundef nonnull align 4 dereferenceable(4) ptr @_ZN24btInverseDynamicsBullet35mat33clEii(ptr noundef nonnull align 4 dereferenceable(48) %0, i32 noundef 1, i32 noundef 0)
  store float 0.000000e+00, ptr %19, align 4, !tbaa !14
  %20 = call noundef nonnull align 4 dereferenceable(4) ptr @_ZN24btInverseDynamicsBullet35mat33clEii(ptr noundef nonnull align 4 dereferenceable(48) %0, i32 noundef 1, i32 noundef 1)
  store float 1.000000e+00, ptr %20, align 4, !tbaa !14
  %21 = call noundef nonnull align 4 dereferenceable(4) ptr @_ZN24btInverseDynamicsBullet35mat33clEii(ptr noundef nonnull align 4 dereferenceable(48) %0, i32 noundef 1, i32 noundef 2)
  store float 0.000000e+00, ptr %21, align 4, !tbaa !14
  %22 = load float, ptr %6, align 4, !tbaa !14
  %23 = call noundef nonnull align 4 dereferenceable(4) ptr @_ZN24btInverseDynamicsBullet35mat33clEii(ptr noundef nonnull align 4 dereferenceable(48) %0, i32 noundef 2, i32 noundef 0)
  store float %22, ptr %23, align 4, !tbaa !14
  %24 = call noundef nonnull align 4 dereferenceable(4) ptr @_ZN24btInverseDynamicsBullet35mat33clEii(ptr noundef nonnull align 4 dereferenceable(48) %0, i32 noundef 2, i32 noundef 1)
  store float 0.000000e+00, ptr %24, align 4, !tbaa !14
  %25 = load float, ptr %5, align 4, !tbaa !14
  %26 = call noundef nonnull align 4 dereferenceable(4) ptr @_ZN24btInverseDynamicsBullet35mat33clEii(ptr noundef nonnull align 4 dereferenceable(48) %0, i32 noundef 2, i32 noundef 2)
  store float %25, ptr %26, align 4, !tbaa !14
  call void @llvm.lifetime.end.p0(i64 4, ptr %6) #10
  call void @llvm.lifetime.end.p0(i64 4, ptr %5) #10
  ret void
}